target datalayout = "e-m:e-p270:32:32-p271:32:32-p272:64:64-i64:64-i128:128-f80:128-n8:16:32:64-S128"
target triple = "x86_64-pc-linux-gnu"

@proto_register_bthci_iso.ett = internal global [1 x ptr] [ptr @ett_bthci_iso], align 8
@.str.25 = private unnamed_addr constant [25 x i8] c"Bluetooth HCI ISO Packet\00", align 1
@.str.26 = private unnamed_addr constant [8 x i8] c"HCI_ISO\00", align 1
@.str.27 = private unnamed_addr constant [10 x i8] c"bthci_iso\00", align 1
@proto_bthci_iso = internal global i32 0, align 4
@bthci_iso_handle = internal global ptr null, align 8
@.str.28 = private unnamed_addr constant [10 x i8] c"Bluetooth\00", align 1
@.str.29 = private unnamed_addr constant [19 x i8] c"hci_iso_reassembly\00", align 1
@.str.30 = private unnamed_addr constant [25 x i8] c"Reassemble ISO Fragments\00", align 1
@.str.31 = private unnamed_addr constant [60 x i8] c"Whether the ISO dissector should reassemble fragmented PDUs\00", align 1
@iso_reassembly = internal global i8 1, align 1
@chandle_tree = internal global ptr null, align 8

; Function Attrs: null_pointer_is_valid sspstrong uwtable
define hidden void @proto_register_bthci_iso() #0 {
  %1 = alloca ptr, align 8
  %2 = alloca ptr, align 8
  call void @llvm.lifetime.start.p0(i64 8, ptr %1) #10
  call void @llvm.lifetime.start.p0(i64 8, ptr %2) #10
  %3 = call i32 @proto_register_protocol(ptr noundef @.str.25, ptr noundef @.str.26, ptr noundef @.str.27)
  store i32 %3, ptr @proto_bthci_iso, align 4
  %4 = load i32, ptr @proto_bthci_iso, align 4
  %5 = call ptr @register_dissector(ptr noundef @.str.27, ptr noundef @dissect_bthci_iso, i32 noundef %4)
  store ptr %5, ptr @bthci_iso_handle, align 8
  %6 = load i32, ptr @proto_bthci_iso, align 4
  call void @proto_register_field_array(i32 noundef %6, ptr noundef @proto_register_bthci_iso.hf, i32 noundef 10)
  call void @proto_register_subtree_array(ptr noundef @proto_register_bthci_iso.ett, i32 noundef 1)
  %7 = load i32, ptr @proto_bthci_iso, align 4
  %8 = call ptr @expert_register_protocol(i32 noundef %7)
  store ptr %8, ptr %2, align 8
  %9 = load ptr, ptr %2, align 8
  call void @expert_register_field_array(ptr noundef %9, ptr noundef @proto_register_bthci_iso.ei, i32 noundef 1)
  %10 = load i32, ptr @proto_bthci_iso, align 4
  %11 = call ptr @prefs_register_protocol_subtree(ptr noundef @.str.28, i32 noundef %10, ptr noundef null)
  store ptr %11, ptr %1, align 8
  %12 = load ptr, ptr %1, align 8
  call void @prefs_register_bool_preference(ptr noundef %12, ptr noundef @.str.29, ptr noundef @.str.30, ptr noundef @.str.31, ptr noundef @iso_reassembly)
  %13 = call ptr @wmem_epan_scope()
  %14 = call ptr @wmem_file_scope()
  %15 = call noalias ptr @wmem_tree_new_autoreset(ptr noundef %13, ptr noundef %14)
  store ptr %15, ptr @chandle_tree, align 8
  call void @llvm.lifetime.end.p0(i64 8, ptr %2) #10
  call void @llvm.lifetime.end.p0(i64 8, ptr %1) #10
  ret void
}