; Function Attrs: null_pointer_is_valid sspstrong uwtable
define hidden void @proto_register_bthci_iso() local_unnamed_addr #0 {
  %1 = tail call i32 @proto_register_protocol(ptr noundef nonnull @.str.25, ptr noundef nonnull @.str.26, ptr noundef nonnull @.str.27)
  store i32 %1, ptr @proto_bthci_iso, align 4
  %2 = tail call ptr @register_dissector(ptr noundef nonnull @.str.27, ptr noundef nonnull @dissect_bthci_iso, i32 noundef %1)
  store ptr %2, ptr @bthci_iso_handle, align 8
  %3 = load i32, ptr @proto_bthci_iso, align 4
  tail call void @proto_register_field_array(i32 noundef %3, ptr noundef nonnull @proto_register_bthci_iso.hf, i32 noundef 10)
  tail call void @proto_register_subtree_array(ptr noundef nonnull @proto_register_bthci_iso.ett, i32 noundef 1)
  %4 = load i32, ptr @proto_bthci_iso, align 4
  %5 = tail call ptr @expert_register_protocol(i32 noundef %4)
  tail call void @expert_register_field_array(ptr noundef %5, ptr noundef nonnull @proto_register_bthci_iso.ei, i32 noundef 1)
  %6 = load i32, ptr @proto_bthci_iso, align 4
  %7 = tail call ptr @prefs_register_protocol_subtree(ptr noundef nonnull @.str.28, i32 noundef %6, ptr noundef null)
  tail call void @prefs_register_bool_preference(ptr noundef %7, ptr noundef nonnull @.str.29, ptr noundef nonnull @.str.30, ptr noundef nonnull @.str.31, ptr noundef nonnull @iso_reassembly)
  %8 = tail call ptr @wmem_epan_scope()
  %9 = tail call ptr @wmem_file_scope()
  %10 = tail call noalias ptr @wmem_tree_new_autoreset(ptr noundef %8, ptr noundef %9)
  store ptr %10, ptr @chandle_tree, align 8
  ret void
}